; Function Attrs: nounwind uwtable
define range(i64 -1, -9223372036854775808) i64 @H5Acreate_async(ptr noundef %0, ptr noundef %1, i32 noundef %2, i64 noundef %3, ptr noundef %4, i64 noundef %5, i64 noundef %6, i64 noundef %7, i64 noundef %8, i64 noundef %9) local_unnamed_addr #0 {
  %11 = alloca ptr, align 8
  %12 = alloca ptr, align 8
  store ptr null, ptr %11, align 8
  store ptr null, ptr %12, align 8
  %13 = load i8, ptr @H5_libinit_g, align 1
  %14 = trunc i8 %13 to i1
  %15 = load i8, ptr @H5_libterm_g, align 1
  %16 = trunc i8 %15 to i1
  %17 = select i1 %14, i1 true, i1 %16
  br i1 %17, label %25, label %18

18:                                               ; preds = %10
  %19 = tail call i32 @H5_init_library() #4
  %20 = icmp slt i32 %19, 0
  br i1 %20, label %21, label %25

21:                                               ; preds = %18
  %22 = load i64, ptr @H5E_FUNC_g, align 8
  %23 = load i64, ptr @H5E_CANTINIT_g, align 8
  %24 = tail call i32 (ptr, ptr, i32, i64, i64, ptr, ...) @H5E_printf_stack(ptr noundef nonnull @.str, ptr noundef nonnull @__func__.H5Acreate_async, i32 noundef 256, i64 noundef %22, i64 noundef %23, ptr noundef nonnull @.str.1) #4
  br label %.thread41

25:                                               ; preds = %18, %10
  %26 = tail call i32 @H5CX_push() #4
  %27 = icmp slt i32 %26, 0
  br i1 %27, label %28, label %32

28:                                               ; preds = %25
  %29 = load i64, ptr @H5E_FUNC_g, align 8
  %30 = load i64, ptr @H5E_CANTSET_g, align 8
  %31 = tail call i32 (ptr, ptr, i32, i64, i64, ptr, ...) @H5E_printf_stack(ptr noundef nonnull @.str, ptr noundef nonnull @__func__.H5Acreate_async, i32 noundef 256, i64 noundef %29, i64 noundef %30, ptr noundef nonnull @.str.2) #4
  br label %.thread41

32:                                               ; preds = %25
  %33 = tail call i32 @H5E_clear_stack() #4
  %.not = icmp eq i64 %9, 0
  %spec.select = select i1 %.not, ptr null, ptr %12
  %34 = call fastcc i64 @H5A__create_api_common(i64 noundef %3, ptr noundef %4, i64 noundef %5, i64 noundef %6, i64 noundef %7, i64 noundef %8, ptr noundef %spec.select, ptr noundef nonnull %11)
  %35 = icmp slt i64 %34, 0
  br i1 %35, label %36, label %40

36:                                               ; preds = %32
  %37 = load i64, ptr @H5E_ATTR_g, align 8
  %38 = load i64, ptr @H5E_CANTCREATE_g, align 8
  %39 = call i32 (ptr, ptr, i32, i64, i64, ptr, ...) @H5E_printf_stack(ptr noundef nonnull @.str, ptr noundef nonnull @__func__.H5Acreate_async, i32 noundef 265, i64 noundef %37, i64 noundef %38, ptr noundef nonnull @.str.4) #4
  br label %.thread47

40:                                               ; preds = %32
  %41 = load ptr, ptr %12, align 8
  %.not32 = icmp eq ptr %41, null
  br i1 %.not32, label %60, label %42

42:                                               ; preds = %40
  %43 = load ptr, ptr %11, align 8
  %44 = getelementptr inbounds i8, ptr %43, i64 8
  %45 = load ptr, ptr %44, align 8
  %46 = call i32 (i64, ptr, ptr, ptr, ptr, ...) @H5ES_insert(i64 noundef %9, ptr noundef %45, ptr noundef nonnull %41, ptr noundef nonnull @__func__.H5Acreate_async, ptr noundef nonnull @.str.5, ptr noundef nonnull @.str.6, ptr noundef %0, ptr noundef nonnull @.str.7, ptr noundef %1, ptr noundef nonnull @.str.8, i32 noundef %2, ptr noundef nonnull @.str.9, i64 noundef %3, ptr noundef nonnull @.str.10, ptr noundef %4, ptr noundef nonnull @.str.11, i64 noundef %5, ptr noundef nonnull @.str.12, i64 noundef %6, ptr noundef nonnull @.str.13, i64 noundef %7, ptr noundef nonnull @.str.14, i64 noundef %8, ptr noundef nonnull @.str.15, i64 noundef %9) #4
  %47 = icmp slt i32 %46, 0
  br i1 %47, label %48, label %60

48:                                               ; preds = %42
  %49 = call i32 @H5I_dec_app_ref(i64 noundef %34) #4
  %50 = icmp slt i32 %49, 0
  br i1 %50, label %51, label %55

51:                                               ; preds = %48
  %52 = load i64, ptr @H5E_ATTR_g, align 8
  %53 = load i64, ptr @H5E_CANTDEC_g, align 8
  %54 = call i32 (ptr, ptr, i32, i64, i64, ptr, ...) @H5E_printf_stack(ptr noundef nonnull @.str, ptr noundef nonnull @__func__.H5Acreate_async, i32 noundef 274, i64 noundef %52, i64 noundef %53, ptr noundef nonnull @.str.16) #4
  br label %55

55:                                               ; preds = %48, %51
  %56 = load i64, ptr @H5E_ATTR_g, align 8
  %57 = load i64, ptr @H5E_CANTINSERT_g, align 8
  %58 = call i32 (ptr, ptr, i32, i64, i64, ptr, ...) @H5E_printf_stack(ptr noundef nonnull @.str, ptr noundef nonnull @__func__.H5Acreate_async, i32 noundef 275, i64 noundef %56, i64 noundef %57, ptr noundef nonnull @.str.17) #4
  br label %.thread47

.thread47:                                        ; preds = %55, %36
  %59 = call i32 @H5CX_pop(i1 noundef zeroext true) #4
  br label %.thread41

60:                                               ; preds = %40, %42
  %61 = call i32 @H5CX_pop(i1 noundef zeroext true) #4
  br label %63

.thread41:                                        ; preds = %28, %21, %.thread47
  %62 = call i32 @H5E_dump_api_stack() #4
  br label %63

63:                                               ; preds = %60, %.thread41
  %.0283644 = phi i64 [ -1, %.thread41 ], [ %34, %60 ]
  ret i64 %.0283644
}